target datalayout = "e-m:e-p270:32:32-p271:32:32-p272:64:64-i64:64-i128:128-f80:128-n8:16:32:64-S128"
target triple = "x86_64-pc-linux-gnu"

%"class.std::basic_ofstream" = type { %"class.std::basic_ostream.base", %"class.std::basic_filebuf", %"class.std::basic_ios" }
%"class.std::basic_ostream.base" = type { ptr }
%"class.std::basic_filebuf" = type { %"class.std::basic_streambuf", %union.pthread_mutex_t, %"class.std::__basic_file", i32, %struct.__mbstate_t, %struct.__mbstate_t, %struct.__mbstate_t, ptr, i64, i8, i8, i8, i8, ptr, ptr, i8, ptr, ptr, i64, ptr, ptr }
%"class.std::basic_streambuf" = type { ptr, ptr, ptr, ptr, ptr, ptr, ptr, %"class.std::locale" }
%"class.std::locale" = type { ptr }
%union.pthread_mutex_t = type { %struct.__pthread_mutex_s }
%struct.__pthread_mutex_s = type { i32, i32, i32, i32, i32, i16, i16, %struct.__pthread_internal_list }
%struct.__pthread_internal_list = type { ptr, ptr }
%"class.std::__basic_file" = type <{ ptr, i8, [7 x i8] }>
%struct.__mbstate_t = type { i32, %union.anon }
%union.anon = type { i32 }
%"class.std::basic_ios" = type { %"class.std::ios_base", ptr, i8, i8, ptr, ptr, ptr, ptr }
%"class.std::ios_base" = type { ptr, i64, i64, i32, i32, i32, ptr, %"struct.std::ios_base::_Words", [8 x %"struct.std::ios_base::_Words"], i32, ptr, %"class.std::locale" }
%"struct.std::ios_base::_Words" = type { ptr, i64 }
%class.cmCursesForm = type { ptr, ptr }
%struct._win_st = type { i16, i16, i16, i16, i16, i16, i16, i32, i32, i8, i8, i8, i8, i8, i8, i8, i8, i8, i32, ptr, i16, i16, i32, i32, ptr, %"struct._win_st::pdat", i16, %struct.cchar_t, i32 }
%"struct._win_st::pdat" = type { i16, i16, i16, i16, i16, i16 }
%struct.cchar_t = type { i32, [5 x i32], i32 }

$__clang_call_terminate = comdat any

$_ZN12cmCursesForm8AddErrorERKNSt7__cxx1112basic_stringIcSt11char_traitsIcESaIcEEEPKc = comdat any

@_ZN12cmCursesForm9DebugFileE = dso_local global %"class.std::basic_ofstream" zeroinitializer, align 8
@__dso_handle = external hidden global i8
@_ZN12cmCursesForm5DebugE = dso_local global i8 0, align 1
@_ZTV12cmCursesForm = dso_local unnamed_addr constant { [8 x ptr] } { [8 x ptr] [ptr null, ptr @_ZTI12cmCursesForm, ptr @_ZN12cmCursesFormD1Ev, ptr @_ZN12cmCursesFormD0Ev, ptr @__cxa_pure_virtual, ptr @__cxa_pure_virtual, ptr @__cxa_pure_virtual, ptr @_ZN12cmCursesForm8AddErrorERKNSt7__cxx1112basic_stringIcSt11char_traitsIcESaIcEEEPKc] }, align 8
@.str = private unnamed_addr constant [14 x i8] c"ccmakelog.txt\00", align 1
@_ZZN12cmCursesForm12HandleResizeEvE6errmsg = internal constant [38 x i8] c"Error: ncurses initialization failed\0A\00", align 16
@stdscr = external global ptr, align 8
@_ZTVN10__cxxabiv117__class_type_infoE = external global [0 x ptr]
@_ZTS12cmCursesForm = dso_local constant [15 x i8] c"12cmCursesForm\00", align 1
@_ZTI12cmCursesForm = dso_local constant { ptr, ptr } { ptr getelementptr inbounds (ptr, ptr @_ZTVN10__cxxabiv117__class_type_infoE, i64 2), ptr @_ZTS12cmCursesForm }, align 8
@llvm.global_ctors = appending global [1 x { i32, ptr, ptr }] [{ i32, ptr, ptr } { i32 65535, ptr @_GLOBAL__sub_I_cmCursesForm.cxx, ptr null }]

@_ZN12cmCursesFormD1Ev = dso_local unnamed_addr alias void (ptr), ptr @_ZN12cmCursesFormD2Ev

; Function Attrs: uwtable
define internal void @__cxx_global_var_init() #0 section ".text.startup" {
  call void @_ZNSt14basic_ofstreamIcSt11char_traitsIcEEC1Ev(ptr noundef nonnull align 8 dereferenceable(248) @_ZN12cmCursesForm9DebugFileE)
  %1 = call i32 @__cxa_atexit(ptr @_ZNSt14basic_ofstreamIcSt11char_traitsIcEED1Ev, ptr @_ZN12cmCursesForm9DebugFileE, ptr @__dso_handle) #3
  ret void
}

declare void @_ZNSt14basic_ofstreamIcSt11char_traitsIcEEC1Ev(ptr noundef nonnull align 8 dereferenceable(248)) unnamed_addr #1

; Function Attrs: nounwind
declare void @_ZNSt14basic_ofstreamIcSt11char_traitsIcEED1Ev(ptr noundef nonnull align 8 dereferenceable(248)) unnamed_addr #2

; Function Attrs: nounwind
declare i32 @__cxa_atexit(ptr, ptr, ptr) #3

; Function Attrs: mustprogress nounwind uwtable
define dso_local void @_ZN12cmCursesFormC2Ev(ptr noundef nonnull align 8 dereferenceable(16) %0) unnamed_addr #4 align 2 {
  %2 = alloca ptr, align 8
  store ptr %0, ptr %2, align 8
  %3 = load ptr, ptr %2, align 8
  store ptr getelementptr inbounds ({ [8 x ptr] }, ptr @_ZTV12cmCursesForm, i32 0, i32 0, i32 2), ptr %3, align 8
  %4 = getelementptr inbounds %class.cmCursesForm, ptr %3, i32 0, i32 1
  store ptr null, ptr %4, align 8
  ret void
}

; Function Attrs: mustprogress nounwind uwtable
define dso_local void @_ZN12cmCursesFormD2Ev(ptr noundef nonnull align 8 dereferenceable(16) %0) unnamed_addr #4 align 2 personality ptr @__gxx_personality_v0 {
  %2 = alloca ptr, align 8
  store ptr %0, ptr %2, align 8
  %3 = load ptr, ptr %2, align 8
  store ptr getelementptr inbounds ({ [8 x ptr] }, ptr @_ZTV12cmCursesForm, i32 0, i32 0, i32 2), ptr %3, align 8
  %4 = getelementptr inbounds %class.cmCursesForm, ptr %3, i32 0, i32 1
  %5 = load ptr, ptr %4, align 8
  %6 = icmp ne ptr %5, null
  br i1 %6, label %7, label %17

7:                                                ; preds = %1
  %8 = getelementptr inbounds %class.cmCursesForm, ptr %3, i32 0, i32 1
  %9 = load ptr, ptr %8, align 8
  %10 = invoke i32 @unpost_form(ptr noundef %9)
          to label %11 unwind label %18

11:                                               ; preds = %7
  %12 = getelementptr inbounds %class.cmCursesForm, ptr %3, i32 0, i32 1
  %13 = load ptr, ptr %12, align 8
  %14 = invoke i32 @free_form(ptr noundef %13)
          to label %15 unwind label %18

15:                                               ; preds = %11
  %16 = getelementptr inbounds %class.cmCursesForm, ptr %3, i32 0, i32 1
  store ptr null, ptr %16, align 8
  br label %17

17:                                               ; preds = %15, %1
  ret void

18:                                               ; preds = %11, %7
  %19 = landingpad { ptr, i32 }
          catch ptr null
  %20 = extractvalue { ptr, i32 } %19, 0
  call void @__clang_call_terminate(ptr %20) #9
  unreachable
}

declare i32 @unpost_form(ptr noundef) #1

declare i32 @__gxx_personality_v0(...)

; Function Attrs: noreturn nounwind uwtable
define linkonce_odr hidden void @__clang_call_terminate(ptr noundef %0) #5 comdat {
  %2 = call ptr @__cxa_begin_catch(ptr %0) #3
  call void @_ZSt9terminatev() #9
  unreachable
}

declare ptr @__cxa_begin_catch(ptr)

declare void @_ZSt9terminatev()

declare i32 @free_form(ptr noundef) #1

; Function Attrs: mustprogress nounwind uwtable
define dso_local void @_ZN12cmCursesFormD0Ev(ptr noundef nonnull align 8 dereferenceable(16) %0) unnamed_addr #4 align 2 {
  %2 = alloca ptr, align 8
  store ptr %0, ptr %2, align 8
  call void @llvm.trap() #9
  unreachable
}

; Function Attrs: cold noreturn nounwind memory(inaccessiblemem: write)
declare void @llvm.trap() #6

; Function Attrs: mustprogress uwtable
define dso_local void @_ZN12cmCursesForm10DebugStartEv() #7 align 2 {
  store i8 1, ptr @_ZN12cmCursesForm5DebugE, align 1
  call void @_ZNSt14basic_ofstreamIcSt11char_traitsIcEE4openEPKcSt13_Ios_Openmode(ptr noundef nonnull align 8 dereferenceable(248) @_ZN12cmCursesForm9DebugFileE, ptr noundef @.str, i32 noundef 16)
  ret void
}

declare void @_ZNSt14basic_ofstreamIcSt11char_traitsIcEE4openEPKcSt13_Ios_Openmode(ptr noundef nonnull align 8 dereferenceable(248), ptr noundef, i32 noundef) #1

; Function Attrs: mustprogress uwtable
define dso_local void @_ZN12cmCursesForm8DebugEndEv() #7 align 2 {
  %1 = load i8, ptr @_ZN12cmCursesForm5DebugE, align 1
  %2 = trunc i8 %1 to i1
  br i1 %2, label %4, label %3

3:                                                ; preds = %0
  br label %5

4:                                                ; preds = %0
  store i8 0, ptr @_ZN12cmCursesForm5DebugE, align 1
  call void @_ZNSt14basic_ofstreamIcSt11char_traitsIcEE5closeEv(ptr noundef nonnull align 8 dereferenceable(248) @_ZN12cmCursesForm9DebugFileE)
  br label %5

5:                                                ; preds = %4, %3
  ret void
}

declare void @_ZNSt14basic_ofstreamIcSt11char_traitsIcEE5closeEv(ptr noundef nonnull align 8 dereferenceable(248)) #1

; Function Attrs: mustprogress uwtable
define dso_local void @_ZN12cmCursesForm10LogMessageEPKc(ptr noundef %0) #7 align 2 {
  %2 = alloca ptr, align 8
  store ptr %0, ptr %2, align 8
  %3 = load i8, ptr @_ZN12cmCursesForm5DebugE, align 1
  %4 = trunc i8 %3 to i1
  br i1 %4, label %6, label %5

5:                                                ; preds = %1
  br label %10

6:                                                ; preds = %1
  %7 = load ptr, ptr %2, align 8
  %8 = call noundef nonnull align 8 dereferenceable(8) ptr @_ZStlsISt11char_traitsIcEERSt13basic_ostreamIcT_ES5_PKc(ptr noundef nonnull align 8 dereferenceable(8) @_ZN12cmCursesForm9DebugFileE, ptr noundef %7)
  %9 = call noundef nonnull align 8 dereferenceable(8) ptr @_ZNSolsEPFRSoS_E(ptr noundef nonnull align 8 dereferenceable(8) %8, ptr noundef @_ZSt4endlIcSt11char_traitsIcEERSt13basic_ostreamIT_T0_ES6_)
  br label %10

10:                                               ; preds = %6, %5
  ret void
}

declare noundef nonnull align 8 dereferenceable(8) ptr @_ZStlsISt11char_traitsIcEERSt13basic_ostreamIcT_ES5_PKc(ptr noundef nonnull align 8 dereferenceable(8), ptr noundef) #1

declare noundef nonnull align 8 dereferenceable(8) ptr @_ZNSolsEPFRSoS_E(ptr noundef nonnull align 8 dereferenceable(8), ptr noundef) #1

declare noundef nonnull align 8 dereferenceable(8) ptr @_ZSt4endlIcSt11char_traitsIcEERSt13basic_ostreamIT_T0_ES6_(ptr noundef nonnull align 8 dereferenceable(8)) #1

; Function Attrs: mustprogress uwtable
define dso_local void @_ZN12cmCursesForm12HandleResizeEv(ptr noundef nonnull align 8 dereferenceable(16) %0) #7 align 2 {
  %2 = alloca ptr, align 8
  %3 = alloca i64, align 8
  %4 = alloca i32, align 4
  %5 = alloca i32, align 4
  store ptr %0, ptr %2, align 8
  %6 = load ptr, ptr %2, align 8
  %7 = call i32 @endwin()
  %8 = call ptr @initscr()
  %9 = icmp eq ptr %8, null
  br i1 %9, label %10, label %12

10:                                               ; preds = %1
  %11 = call i64 @write(i32 noundef 2, ptr noundef @_ZZN12cmCursesForm12HandleResizeEvE6errmsg, i64 noundef 37)
  store i64 %11, ptr %3, align 8
  call void @exit(i32 noundef 1) #9
  unreachable

12:                                               ; preds = %1
  %13 = call i32 @noecho()
  %14 = call i32 @cbreak()
  %15 = load ptr, ptr @stdscr, align 8
  %16 = call i32 @keypad(ptr noundef %15, i1 noundef zeroext true)
  %17 = call i32 @refresh()
  %18 = load ptr, ptr @stdscr, align 8
  %19 = icmp ne ptr null, %18
  br i1 %19, label %20, label %26

20:                                               ; preds = %12
  %21 = load ptr, ptr @stdscr, align 8
  %22 = getelementptr inbounds %struct._win_st, ptr %21, i32 0, i32 2
  %23 = load i16, ptr %22, align 4
  %24 = sext i16 %23 to i32
  %25 = add nsw i32 %24, 1
  br label %27

26:                                               ; preds = %12
  br label %27

27:                                               ; preds = %26, %20
  %28 = phi i32 [ %25, %20 ], [ -1, %26 ]
  store i32 %28, ptr %5, align 4
  %29 = load ptr, ptr @stdscr, align 8
  %30 = icmp ne ptr null, %29
  br i1 %30, label %31, label %37

31:                                               ; preds = %27
  %32 = load ptr, ptr @stdscr, align 8
  %33 = getelementptr inbounds %struct._win_st, ptr %32, i32 0, i32 3
  %34 = load i16, ptr %33, align 2
  %35 = sext i16 %34 to i32
  %36 = add nsw i32 %35, 1
  br label %38

37:                                               ; preds = %27
  br label %38

38:                                               ; preds = %37, %31
  %39 = phi i32 [ %36, %31 ], [ -1, %37 ]
  store i32 %39, ptr %4, align 4
  %40 = load i32, ptr %4, align 4
  %41 = load i32, ptr %5, align 4
  %42 = load ptr, ptr %6, align 8
  %43 = getelementptr inbounds ptr, ptr %42, i64 3
  %44 = load ptr, ptr %43, align 8
  call void %44(ptr noundef nonnull align 8 dereferenceable(16) %6, i32 noundef 1, i32 noundef 1, i32 noundef %40, i32 noundef %41)
  %45 = load ptr, ptr %6, align 8
  %46 = getelementptr inbounds ptr, ptr %45, i64 4
  %47 = load ptr, ptr %46, align 8
  call void %47(ptr noundef nonnull align 8 dereferenceable(16) %6)
  ret void
}

declare i32 @endwin() #1

declare ptr @initscr() #1

declare i64 @write(i32 noundef, ptr noundef, i64 noundef) #1

; Function Attrs: noreturn nounwind
declare void @exit(i32 noundef) #8

declare i32 @noecho() #1

declare i32 @cbreak() #1

declare i32 @keypad(ptr noundef, i1 noundef zeroext) #1

declare i32 @refresh() #1

declare void @__cxa_pure_virtual() unnamed_addr

; Function Attrs: mustprogress nounwind uwtable
define linkonce_odr dso_local void @_ZN12cmCursesForm8AddErrorERKNSt7__cxx1112basic_stringIcSt11char_traitsIcESaIcEEEPKc(ptr noundef nonnull align 8 dereferenceable(16) %0, ptr noundef nonnull align 8 dereferenceable(32) %1, ptr noundef %2) unnamed_addr #4 comdat align 2 {
  %4 = alloca ptr, align 8
  %5 = alloca ptr, align 8
  %6 = alloca ptr, align 8
  store ptr %0, ptr %4, align 8
  store ptr %1, ptr %5, align 8
  store ptr %2, ptr %6, align 8
  ret void
}

; Function Attrs: uwtable
define internal void @_GLOBAL__sub_I_cmCursesForm.cxx() #0 section ".text.startup" {
  call void @__cxx_global_var_init()
  ret void
}


!llvm.module.flags = !{!0, !1, !2, !3, !4}

!0 = !{i32 1, !"wchar_size", i32 4}
!1 = !{i32 8, !"PIC Level", i32 2}
!2 = !{i32 7, !"PIE Level", i32 2}
!3 = !{i32 7, !"uwtable", i32 2}
!4 = !{i32 7, !"frame-pointer", i32 2}
