; ModuleID = 'bench/cmake/original/cmCursesForm.cxx.ll'
source_filename = "bench/cmake/original/cmCursesForm.cxx.ll"
target datalayout = "e-m:e-p270:32:32-p271:32:32-p272:64:64-i64:64-i128:128-f80:128-n8:16:32:64-S128"
target triple = "x86_64-pc-linux-gnu"

%"class.std::basic_ofstream" = type { %"class.std::basic_ostream.base", %"class.std::basic_filebuf", %"class.std::basic_ios" }
%"class.std::basic_ostream.base" = type { ptr }
%"class.std::basic_filebuf" = type { %"class.std::basic_streambuf", %union.pthread_mutex_t, %"class.std::__basic_file", i32, %struct.__mbstate_t, %struct.__mbstate_t, %struct.__mbstate_t, ptr, i64, i8, i8, i8, i8, ptr, ptr, i8, ptr, ptr, i64, ptr, ptr }
%"class.std::basic_streambuf" = type { ptr, ptr, ptr, ptr, ptr, ptr, ptr, %"class.std::locale" }
%"class.std::locale" = type { ptr }
%union.pthread_mutex_t = type { %struct.__pthread_mutex_s }
%struct.__pthread_mutex_s = type { i32, i32, i32, i32, i32, i16, i16, %struct.__pthread_internal_list }
%struct.__pthread_internal_list = type { ptr, ptr }
%"class.std::__basic_file" = type <{ ptr, i8, [7 x i8] }>
%struct.__mbstate_t = type { i32, %union.anon }
%union.anon = type { i32 }
%"class.std::basic_ios" = type { %"class.std::ios_base", ptr, i8, i8, ptr, ptr, ptr, ptr }
%"class.std::ios_base" = type { ptr, i64, i64, i32, i32, i32, ptr, %"struct.std::ios_base::_Words", [8 x %"struct.std::ios_base::_Words"], i32, ptr, %"class.std::locale" }
%"struct.std::ios_base::_Words" = type { ptr, i64 }

$__clang_call_terminate = comdat any

$_ZN12cmCursesForm8AddErrorERKNSt7__cxx1112basic_stringIcSt11char_traitsIcESaIcEEEPKc = comdat any

@_ZN12cmCursesForm9DebugFileE = dso_local global %"class.std::basic_ofstream" zeroinitializer, align 8
@__dso_handle = external hidden global i8
@_ZN12cmCursesForm5DebugE = dso_local local_unnamed_addr global i8 0, align 1
@_ZTV12cmCursesForm = dso_local unnamed_addr constant { [8 x ptr] } { [8 x ptr] [ptr null, ptr @_ZTI12cmCursesForm, ptr @_ZN12cmCursesFormD2Ev, ptr @_ZN12cmCursesFormD0Ev, ptr @__cxa_pure_virtual, ptr @__cxa_pure_virtual, ptr @__cxa_pure_virtual, ptr @_ZN12cmCursesForm8AddErrorERKNSt7__cxx1112basic_stringIcSt11char_traitsIcESaIcEEEPKc] }, align 8
@.str = private unnamed_addr constant [14 x i8] c"ccmakelog.txt\00", align 1
@_ZZN12cmCursesForm12HandleResizeEvE6errmsg = internal constant [38 x i8] c"Error: ncurses initialization failed\0A\00", align 16
@stdscr = external local_unnamed_addr global ptr, align 8
@_ZTVN10__cxxabiv117__class_type_infoE = external global [0 x ptr]
@_ZTS12cmCursesForm = dso_local constant [15 x i8] c"12cmCursesForm\00", align 1
@_ZTI12cmCursesForm = dso_local constant { ptr, ptr } { ptr getelementptr inbounds (ptr, ptr @_ZTVN10__cxxabiv117__class_type_infoE, i64 2), ptr @_ZTS12cmCursesForm }, align 8
@llvm.global_ctors = appending global [1 x { i32, ptr, ptr }] [{ i32, ptr, ptr } { i32 65535, ptr @_GLOBAL__sub_I_cmCursesForm.cxx, ptr null }]

@_ZN12cmCursesFormD1Ev = dso_local unnamed_addr alias void (ptr), ptr @_ZN12cmCursesFormD2Ev

declare void @_ZNSt14basic_ofstreamIcSt11char_traitsIcEEC1Ev(ptr noundef nonnull align 8 dereferenceable(248)) unnamed_addr #0

; Function Attrs: nounwind
declare void @_ZNSt14basic_ofstreamIcSt11char_traitsIcEED1Ev(ptr noundef nonnull align 8 dereferenceable(248)) unnamed_addr #1

; Function Attrs: nofree nounwind
declare i32 @__cxa_atexit(ptr, ptr, ptr) local_unnamed_addr #2

; Function Attrs: mustprogress nofree norecurse nosync nounwind willreturn memory(argmem: write) uwtable
define dso_local void @_ZN12cmCursesFormC2Ev(ptr nocapture noundef nonnull writeonly align 8 dereferenceable(16) %0) unnamed_addr #3 align 2 {
  store ptr getelementptr inbounds ({ [8 x ptr] }, ptr @_ZTV12cmCursesForm, i64 0, i32 0, i64 2), ptr %0, align 8
  %2 = getelementptr inbounds i8, ptr %0, i64 8
  store ptr null, ptr %2, align 8
  ret void
}

; Function Attrs: mustprogress nounwind uwtable
define dso_local void @_ZN12cmCursesFormD2Ev(ptr nocapture noundef nonnull align 8 dereferenceable(16) %0) unnamed_addr #4 align 2 personality ptr @__gxx_personality_v0 {
  store ptr getelementptr inbounds ({ [8 x ptr] }, ptr @_ZTV12cmCursesForm, i64 0, i32 0, i64 2), ptr %0, align 8
  %2 = getelementptr inbounds i8, ptr %0, i64 8
  %3 = load ptr, ptr %2, align 8
  %.not = icmp eq ptr %3, null
  br i1 %.not, label %10, label %4

4:                                                ; preds = %1
  %5 = invoke i32 @unpost_form(ptr noundef nonnull %3)
          to label %6 unwind label %11

6:                                                ; preds = %4
  %7 = load ptr, ptr %2, align 8
  %8 = invoke i32 @free_form(ptr noundef %7)
          to label %9 unwind label %11

9:                                                ; preds = %6
  store ptr null, ptr %2, align 8
  br label %10

10:                                               ; preds = %9, %1
  ret void

11:                                               ; preds = %6, %4
  %12 = landingpad { ptr, i32 }
          catch ptr null
  %13 = extractvalue { ptr, i32 } %12, 0
  tail call void @__clang_call_terminate(ptr %13) #12
  unreachable
}

declare i32 @unpost_form(ptr noundef) local_unnamed_addr #0

declare i32 @__gxx_personality_v0(...)

; Function Attrs: noreturn nounwind uwtable
define linkonce_odr hidden void @__clang_call_terminate(ptr noundef %0) local_unnamed_addr #5 comdat {
  %2 = tail call ptr @__cxa_begin_catch(ptr %0) #13
  tail call void @_ZSt9terminatev() #12
  unreachable
}

declare ptr @__cxa_begin_catch(ptr) local_unnamed_addr

declare void @_ZSt9terminatev() local_unnamed_addr

declare i32 @free_form(ptr noundef) local_unnamed_addr #0

; Function Attrs: mustprogress noreturn nounwind memory(inaccessiblemem: write) uwtable
define dso_local void @_ZN12cmCursesFormD0Ev(ptr nocapture nonnull readnone align 8 %0) unnamed_addr #6 align 2 {
  tail call void @llvm.trap() #12
  unreachable
}

; Function Attrs: cold noreturn nounwind memory(inaccessiblemem: write)
declare void @llvm.trap() #7

; Function Attrs: mustprogress uwtable
define dso_local void @_ZN12cmCursesForm10DebugStartEv() local_unnamed_addr #8 align 2 {
  store i8 1, ptr @_ZN12cmCursesForm5DebugE, align 1
  tail call void @_ZNSt14basic_ofstreamIcSt11char_traitsIcEE4openEPKcSt13_Ios_Openmode(ptr noundef nonnull align 8 dereferenceable(248) @_ZN12cmCursesForm9DebugFileE, ptr noundef nonnull @.str, i32 noundef 16)
  ret void
}

declare void @_ZNSt14basic_ofstreamIcSt11char_traitsIcEE4openEPKcSt13_Ios_Openmode(ptr noundef nonnull align 8 dereferenceable(248), ptr noundef, i32 noundef) local_unnamed_addr #0

; Function Attrs: mustprogress uwtable
define dso_local void @_ZN12cmCursesForm8DebugEndEv() local_unnamed_addr #8 align 2 {
  %1 = load i8, ptr @_ZN12cmCursesForm5DebugE, align 1
  %2 = and i8 %1, 1
  %.not = icmp eq i8 %2, 0
  br i1 %.not, label %4, label %3

3:                                                ; preds = %0
  store i8 0, ptr @_ZN12cmCursesForm5DebugE, align 1
  tail call void @_ZNSt14basic_ofstreamIcSt11char_traitsIcEE5closeEv(ptr noundef nonnull align 8 dereferenceable(248) @_ZN12cmCursesForm9DebugFileE)
  br label %4

4:                                                ; preds = %0, %3
  ret void
}

declare void @_ZNSt14basic_ofstreamIcSt11char_traitsIcEE5closeEv(ptr noundef nonnull align 8 dereferenceable(248)) local_unnamed_addr #0

; Function Attrs: mustprogress uwtable
define dso_local void @_ZN12cmCursesForm10LogMessageEPKc(ptr noundef %0) local_unnamed_addr #8 align 2 {
  %2 = load i8, ptr @_ZN12cmCursesForm5DebugE, align 1
  %3 = and i8 %2, 1
  %.not = icmp eq i8 %3, 0
  br i1 %.not, label %7, label %4

4:                                                ; preds = %1
  %5 = tail call noundef nonnull align 8 dereferenceable(8) ptr @_ZStlsISt11char_traitsIcEERSt13basic_ostreamIcT_ES5_PKc(ptr noundef nonnull align 8 dereferenceable(8) @_ZN12cmCursesForm9DebugFileE, ptr noundef %0)
  %6 = tail call noundef nonnull align 8 dereferenceable(8) ptr @_ZNSolsEPFRSoS_E(ptr noundef nonnull align 8 dereferenceable(8) %5, ptr noundef nonnull @_ZSt4endlIcSt11char_traitsIcEERSt13basic_ostreamIT_T0_ES6_)
  br label %7

7:                                                ; preds = %1, %4
  ret void
}

declare noundef nonnull align 8 dereferenceable(8) ptr @_ZStlsISt11char_traitsIcEERSt13basic_ostreamIcT_ES5_PKc(ptr noundef nonnull align 8 dereferenceable(8), ptr noundef) local_unnamed_addr #0

declare noundef nonnull align 8 dereferenceable(8) ptr @_ZNSolsEPFRSoS_E(ptr noundef nonnull align 8 dereferenceable(8), ptr noundef) local_unnamed_addr #0

declare noundef nonnull align 8 dereferenceable(8) ptr @_ZSt4endlIcSt11char_traitsIcEERSt13basic_ostreamIT_T0_ES6_(ptr noundef nonnull align 8 dereferenceable(8)) #0

; Function Attrs: mustprogress uwtable
define dso_local void @_ZN12cmCursesForm12HandleResizeEv(ptr noundef nonnull align 8 dereferenceable(16) %0) local_unnamed_addr #8 align 2 {
  %2 = tail call i32 @endwin()
  %3 = tail call ptr @initscr()
  %4 = icmp eq ptr %3, null
  br i1 %4, label %5, label %7

5:                                                ; preds = %1
  %6 = tail call i64 @write(i32 noundef 2, ptr noundef nonnull @_ZZN12cmCursesForm12HandleResizeEvE6errmsg, i64 noundef 37)
  tail call void @exit(i32 noundef 1) #12
  unreachable

7:                                                ; preds = %1
  %8 = tail call i32 @noecho()
  %9 = tail call i32 @cbreak()
  %10 = load ptr, ptr @stdscr, align 8
  %11 = tail call i32 @keypad(ptr noundef %10, i1 noundef zeroext true)
  %12 = tail call i32 @refresh()
  %13 = load ptr, ptr @stdscr, align 8
  %.not = icmp eq ptr %13, null
  br i1 %.not, label %.thread, label %14

14:                                               ; preds = %7
  %15 = getelementptr inbounds i8, ptr %13, i64 4
  %16 = load i16, ptr %15, align 4
  %17 = sext i16 %16 to i32
  %18 = add nsw i32 %17, 1
  %19 = getelementptr inbounds i8, ptr %13, i64 6
  %20 = load i16, ptr %19, align 2
  %21 = sext i16 %20 to i32
  %22 = add nsw i32 %21, 1
  br label %.thread

.thread:                                          ; preds = %7, %14
  %23 = phi i32 [ %18, %14 ], [ -1, %7 ]
  %24 = phi i32 [ %22, %14 ], [ -1, %7 ]
  %25 = load ptr, ptr %0, align 8
  %26 = getelementptr inbounds i8, ptr %25, i64 24
  %27 = load ptr, ptr %26, align 8
  tail call void %27(ptr noundef nonnull align 8 dereferenceable(16) %0, i32 noundef 1, i32 noundef 1, i32 noundef %24, i32 noundef %23)
  %28 = load ptr, ptr %0, align 8
  %29 = getelementptr inbounds i8, ptr %28, i64 32
  %30 = load ptr, ptr %29, align 8
  tail call void %30(ptr noundef nonnull align 8 dereferenceable(16) %0)
  ret void
}

declare i32 @endwin() local_unnamed_addr #0

declare ptr @initscr() local_unnamed_addr #0

; Function Attrs: nofree
declare noundef i64 @write(i32 noundef, ptr nocapture noundef readonly, i64 noundef) local_unnamed_addr #9

; Function Attrs: noreturn nounwind
declare void @exit(i32 noundef) local_unnamed_addr #10

declare i32 @noecho() local_unnamed_addr #0

declare i32 @cbreak() local_unnamed_addr #0

declare i32 @keypad(ptr noundef, i1 noundef zeroext) local_unnamed_addr #0

declare i32 @refresh() local_unnamed_addr #0

declare void @__cxa_pure_virtual() unnamed_addr

; Function Attrs: mustprogress nounwind uwtable
define linkonce_odr dso_local void @_ZN12cmCursesForm8AddErrorERKNSt7__cxx1112basic_stringIcSt11char_traitsIcESaIcEEEPKc(ptr noundef nonnull align 8 dereferenceable(16) %0, ptr noundef nonnull align 8 dereferenceable(32) %1, ptr noundef %2) unnamed_addr #4 comdat align 2 {
  ret void
}

; Function Attrs: uwtable
define internal void @_GLOBAL__sub_I_cmCursesForm.cxx() #11 section ".text.startup" {
  tail call void @_ZNSt14basic_ofstreamIcSt11char_traitsIcEEC1Ev(ptr noundef nonnull align 8 dereferenceable(248) @_ZN12cmCursesForm9DebugFileE)
  %1 = tail call i32 @__cxa_atexit(ptr nonnull @_ZNSt14basic_ofstreamIcSt11char_traitsIcEED1Ev, ptr nonnull @_ZN12cmCursesForm9DebugFileE, ptr nonnull @__dso_handle) #13
  ret void
}


!llvm.module.flags = !{!0, !1, !2, !3, !4}

!0 = !{i32 1, !"wchar_size", i32 4}
!1 = !{i32 8, !"PIC Level", i32 2}
!2 = !{i32 7, !"PIE Level", i32 2}
!3 = !{i32 7, !"uwtable", i32 2}
!4 = !{i32 7, !"frame-pointer", i32 2}
